target datalayout = "e-m:e-p270:32:32-p271:32:32-p272:64:64-i64:64-i128:128-f80:128-n8:16:32:64-S128"
target triple = "x86_64-pc-linux-gnu"

%"class.llvm::SmallVectorBase" = type { ptr, i32, i32 }
%"class.(anonymous namespace)::X86AlignBranchKind" = type { i8 }
%"class.llvm::MCAsmBackend" = type { ptr, i32, i32 }
%"class.std::unique_ptr" = type { %"struct.std::__uniq_ptr_data" }
%"struct.std::__uniq_ptr_data" = type { %"class.std::__uniq_ptr_impl" }
%"class.std::__uniq_ptr_impl" = type { %"class.std::tuple" }
%"class.std::tuple" = type { %"struct.std::_Tuple_impl" }
%"struct.std::_Tuple_impl" = type { %"struct.std::_Head_base.25" }
%"struct.std::_Head_base.25" = type { ptr }
%"struct.llvm::Align" = type { i8 }
%"class.llvm::MCInst" = type { i32, i32, %"class.llvm::SMLoc", %"class.llvm::SmallVector.26" }
%"class.llvm::SMLoc" = type { ptr }
%"class.llvm::SmallVector.26" = type { %"class.llvm::SmallVectorImpl.27", %"struct.llvm::SmallVectorStorage.30" }
%"class.llvm::SmallVectorImpl.27" = type { %"class.llvm::SmallVectorTemplateBase.28" }
%"class.llvm::SmallVectorTemplateBase.28" = type { %"class.llvm::SmallVectorTemplateCommon.29" }
%"class.llvm::SmallVectorTemplateCommon.29" = type { %"class.llvm::SmallVectorBase" }
%"struct.llvm::SmallVectorStorage.30" = type { [96 x i8] }
%"struct.std::pair" = type { ptr, i64 }
%"class.(anonymous namespace)::X86AsmBackend" = type <{ %"class.llvm::MCAsmBackend", ptr, %"class.std::unique_ptr", %"class.(anonymous namespace)::X86AlignBranchKind", %"struct.llvm::Align", [2 x i8], i32, %"class.llvm::MCInst", i32, [4 x i8], ptr, %"struct.std::pair", i8, [7 x i8] }>

; Function Attrs: mustprogress nounwind uwtable
define linkonce_odr hidden noundef i32 @_ZN4llvm6detail19LeadingZerosCounterImLm8EE5countEm(i64 noundef %0) #1 comdat align 2 {
  %2 = alloca i32, align 4
  %3 = alloca i64, align 8
  store i64 %0, ptr %3, align 8
  %4 = load i64, ptr %3, align 8
  %5 = icmp eq i64 %4, 0
  br i1 %5, label %6, label %7

6:                                                ; preds = %1
  store i32 64, ptr %2, align 4
  br label %11

7:                                                ; preds = %1
  %8 = load i64, ptr %3, align 8
  %9 = call i64 @llvm.ctlz.i64(i64 %8, i1 true)
  %10 = trunc i64 %9 to i32
  store i32 %10, ptr %2, align 4
  br label %11

11:                                               ; preds = %7, %6
  %12 = load i32, ptr %2, align 4
  ret i32 %12
}

; Function Attrs: mustprogress nounwind uwtable
define linkonce_odr noundef i32 @_ZN4llvm11countl_zeroImEEiT_(i64 noundef %0) #1 comdat {
  %2 = alloca i64, align 8
  store i64 %0, ptr %2, align 8
  %3 = load i64, ptr %2, align 8
  %4 = call noundef i32 @_ZN4llvm6detail19LeadingZerosCounterImLm8EE5countEm(i64 noundef %3)
  ret i32 %4
}

; Function Attrs: mustprogress nounwind uwtable
define linkonce_odr hidden noundef i32 @_ZN4llvm7Log2_64Em(i64 noundef %0) #1 comdat {
  %2 = alloca i64, align 8
  store i64 %0, ptr %2, align 8
  %3 = load i64, ptr %2, align 8
  %4 = call noundef i32 @_ZN4llvm11countl_zeroImEEiT_(i64 noundef %3)
  %5 = sub nsw i32 63, %4
  ret i32 %5
}

; Function Attrs: mustprogress nounwind uwtable
define internal noundef zeroext i8 @_ZNK12_GLOBAL__N_118X86AlignBranchKindcvhEv(ptr noundef nonnull align 1 dereferenceable(1) %0) #1 align 2 {
  %2 = alloca ptr, align 8
  store ptr %0, ptr %2, align 8
  %3 = load ptr, ptr %2, align 8
  %4 = getelementptr inbounds nuw %"class.(anonymous namespace)::X86AlignBranchKind", ptr %3, i32 0, i32 0
  %5 = load i8, ptr %4, align 1
  ret i8 %5
}

; Function Attrs: mustprogress nounwind uwtable
define linkonce_odr hidden noundef zeroext i1 @_ZN4llvmneENS_5AlignES0_(i8 %0, i8 %1) #1 comdat {
  %3 = alloca %"struct.llvm::Align", align 1
  %4 = alloca %"struct.llvm::Align", align 1
  %5 = getelementptr inbounds nuw %"struct.llvm::Align", ptr %3, i32 0, i32 0
  store i8 %0, ptr %5, align 1
  %6 = getelementptr inbounds nuw %"struct.llvm::Align", ptr %4, i32 0, i32 0
  store i8 %1, ptr %6, align 1
  %7 = getelementptr inbounds nuw %"struct.llvm::Align", ptr %3, i32 0, i32 0
  %8 = load i8, ptr %7, align 1
  %9 = zext i8 %8 to i32
  %10 = getelementptr inbounds nuw %"struct.llvm::Align", ptr %4, i32 0, i32 0
  %11 = load i8, ptr %10, align 1
  %12 = zext i8 %11 to i32
  %13 = icmp ne i32 %9, %12
  ret i1 %13
}

; Function Attrs: mustprogress nounwind uwtable
define linkonce_odr hidden void @_ZN4llvm5AlignC2Em(ptr noundef nonnull align 1 dereferenceable(1) %0, i64 noundef %1) unnamed_addr #1 comdat align 2 {
  %3 = alloca ptr, align 8
  %4 = alloca i64, align 8
  store ptr %0, ptr %3, align 8
  store i64 %1, ptr %4, align 8
  %5 = load ptr, ptr %3, align 8
  %6 = getelementptr inbounds nuw %"struct.llvm::Align", ptr %5, i32 0, i32 0
  store i8 0, ptr %6, align 1
  %7 = load i64, ptr %4, align 8
  %8 = call noundef i32 @_ZN4llvm7Log2_64Em(i64 noundef %7)
  %9 = trunc i32 %8 to i8
  %10 = getelementptr inbounds nuw %"struct.llvm::Align", ptr %5, i32 0, i32 0
  store i8 %9, ptr %10, align 1
  ret void
}

; Function Attrs: mustprogress nounwind uwtable
define internal noundef zeroext i1 @_ZNK12_GLOBAL__N_113X86AsmBackend16allowAutoPaddingEv(ptr noundef nonnull align 8 dereferenceable(201) %0) unnamed_addr #1 align 2 {
  %2 = alloca ptr, align 8
  %3 = alloca %"struct.llvm::Align", align 1
  %4 = alloca %"struct.llvm::Align", align 1
  store ptr %0, ptr %2, align 8
  %5 = load ptr, ptr %2, align 8
  %6 = getelementptr inbounds nuw %"class.(anonymous namespace)::X86AsmBackend", ptr %5, i32 0, i32 4
  call void @llvm.memcpy.p0.p0.i64(ptr align 1 %3, ptr align 1 %6, i64 1, i1 false)
  call void @_ZN4llvm5AlignC2Em(ptr noundef nonnull align 1 dereferenceable(1) %4, i64 noundef 1)
  %7 = getelementptr inbounds nuw %"struct.llvm::Align", ptr %3, i32 0, i32 0
  %8 = load i8, ptr %7, align 1
  %9 = getelementptr inbounds nuw %"struct.llvm::Align", ptr %4, i32 0, i32 0
  %10 = load i8, ptr %9, align 1
  %11 = call noundef zeroext i1 @_ZN4llvmneENS_5AlignES0_(i8 %8, i8 %10)
  br i1 %11, label %12, label %17

12:                                               ; preds = %1
  %13 = getelementptr inbounds nuw %"class.(anonymous namespace)::X86AsmBackend", ptr %5, i32 0, i32 3
  %14 = call noundef zeroext i8 @_ZNK12_GLOBAL__N_118X86AlignBranchKindcvhEv(ptr noundef nonnull align 1 dereferenceable(1) %13)
  %15 = zext i8 %14 to i32
  %16 = icmp ne i32 %15, 0
  br label %17

17:                                               ; preds = %12, %1
  %18 = phi i1 [ false, %1 ], [ %16, %12 ]
  ret i1 %18
}