; Function Attrs: mustprogress nofree norecurse nosync nounwind willreturn memory(argmem: read) uwtable
define internal noundef zeroext i1 @_ZNK12_GLOBAL__N_113X86AsmBackend16allowAutoPaddingEv(ptr nocapture noundef nonnull readonly align 8 dereferenceable(201) %0) unnamed_addr #13 align 2 {
  %2 = getelementptr inbounds nuw i8, ptr %0, i64 33
  %.sroa.0.0.copyload = load i8, ptr %2, align 1
  %3 = icmp ne i8 %.sroa.0.0.copyload, 0
  %4 = getelementptr inbounds nuw i8, ptr %0, i64 32
  %.val = load i8, ptr %4, align 8
  %5 = icmp ne i8 %.val, 0
  %6 = select i1 %3, i1 %5, i1 false
  ret i1 %6
}